target datalayout = "e-m:e-p270:32:32-p271:32:32-p272:64:64-i64:64-i128:128-f80:128-n8:16:32:64-S128"
target triple = "x86_64-pc-linux-gnu"

%struct._php_stream_xport_param = type { i32, i8, %struct.anon.8, %struct.anon.9 }
%struct.anon.8 = type { ptr, i64, ptr, ptr, ptr, i64, i32, i32, i32 }
%struct.anon.9 = type { ptr, ptr, i32, ptr, ptr, i32, i32 }

; Function Attrs: nounwind uwtable
define i32 @php_stream_xport_listen(ptr noundef %0, i32 noundef %1, ptr noundef %2) #0 {
  %4 = alloca i32, align 4
  %5 = alloca ptr, align 8
  %6 = alloca i32, align 4
  %7 = alloca ptr, align 8
  %8 = alloca %struct._php_stream_xport_param, align 8
  %9 = alloca i32, align 4
  store ptr %0, ptr %5, align 8
  store i32 %1, ptr %6, align 4
  store ptr %2, ptr %7, align 8
  call void @llvm.memset.p0.i64(ptr align 8 %8, i8 0, i64 120, i1 false)
  %10 = getelementptr inbounds %struct._php_stream_xport_param, ptr %8, i32 0, i32 0
  store i32 2, ptr %10, align 8
  %11 = load i32, ptr %6, align 4
  %12 = getelementptr inbounds %struct._php_stream_xport_param, ptr %8, i32 0, i32 2
  %13 = getelementptr inbounds %struct.anon.8, ptr %12, i32 0, i32 7
  store i32 %11, ptr %13, align 4
  %14 = load ptr, ptr %7, align 8
  %15 = icmp ne ptr %14, null
  %16 = select i1 %15, i32 1, i32 0
  %17 = getelementptr inbounds %struct._php_stream_xport_param, ptr %8, i32 0, i32 1
  %18 = trunc i32 %16 to i8
  %19 = load i8, ptr %17, align 4
  %20 = and i8 %18, 1
  %21 = shl i8 %20, 2
  %22 = and i8 %19, -5
  %23 = or i8 %22, %21
  store i8 %23, ptr %17, align 4
  %24 = load ptr, ptr %5, align 8
  %25 = call i32 @_php_stream_set_option(ptr noundef %24, i32 noundef 7, i32 noundef 0, ptr noundef %8)
  store i32 %25, ptr %9, align 4
  %26 = load i32, ptr %9, align 4
  %27 = icmp eq i32 %26, 0
  br i1 %27, label %28, label %40

28:                                               ; preds = %3
  %29 = load ptr, ptr %7, align 8
  %30 = icmp ne ptr %29, null
  br i1 %30, label %31, label %36

31:                                               ; preds = %28
  %32 = getelementptr inbounds %struct._php_stream_xport_param, ptr %8, i32 0, i32 3
  %33 = getelementptr inbounds %struct.anon.9, ptr %32, i32 0, i32 4
  %34 = load ptr, ptr %33, align 8
  %35 = load ptr, ptr %7, align 8
  store ptr %34, ptr %35, align 8
  br label %36

36:                                               ; preds = %31, %28
  %37 = getelementptr inbounds %struct._php_stream_xport_param, ptr %8, i32 0, i32 3
  %38 = getelementptr inbounds %struct.anon.9, ptr %37, i32 0, i32 5
  %39 = load i32, ptr %38, align 8
  store i32 %39, ptr %4, align 4
  br label %42

40:                                               ; preds = %3
  %41 = load i32, ptr %9, align 4
  store i32 %41, ptr %4, align 4
  br label %42

42:                                               ; preds = %40, %36
  %43 = load i32, ptr %4, align 4
  ret i32 %43
}