; Function Attrs: nounwind uwtable
define i32 @php_stream_xport_listen(ptr noundef %0, i32 noundef %1, ptr noundef writeonly %2) local_unnamed_addr #1 {
  %4 = alloca %struct._php_stream_xport_param, align 8
  call void @llvm.memset.p0.i64(ptr noundef nonnull align 8 dereferenceable(120) %4, i8 0, i64 120, i1 false)
  store i32 2, ptr %4, align 8
  %5 = getelementptr inbounds i8, ptr %4, i64 60
  store i32 %1, ptr %5, align 4
  %.not.not = icmp eq ptr %2, null
  %6 = getelementptr inbounds i8, ptr %4, i64 4
  %7 = select i1 %.not.not, i8 0, i8 4
  store i8 %7, ptr %6, align 4
  %8 = call i32 @_php_stream_set_option(ptr noundef %0, i32 noundef 7, i32 noundef 0, ptr noundef nonnull %4) #14
  %9 = icmp eq i32 %8, 0
  br i1 %9, label %10, label %17

10:                                               ; preds = %3
  br i1 %.not.not, label %14, label %11

11:                                               ; preds = %10
  %12 = getelementptr inbounds i8, ptr %4, i64 104
  %13 = load ptr, ptr %12, align 8
  store ptr %13, ptr %2, align 8
  br label %14

14:                                               ; preds = %11, %10
  %15 = getelementptr inbounds i8, ptr %4, i64 112
  %16 = load i32, ptr %15, align 8
  br label %17

17:                                               ; preds = %3, %14
  %.0 = phi i32 [ %16, %14 ], [ %8, %3 ]
  ret i32 %.0
}